; Function Attrs: nofree norecurse nosync nounwind memory(read, argmem: readwrite, inaccessiblemem: none) uwtable
define range(i32 0, 256) i32 @GC_get_kind_and_size(ptr noundef nonnull %0, ptr noundef writeonly %1) local_unnamed_addr #16 {
  %3 = ptrtoint ptr %0 to i64
  %4 = lshr i64 %3, 22
  %5 = and i64 %4, 2047
  %6 = getelementptr inbounds nuw [2048 x ptr], ptr getelementptr inbounds nuw (i8, ptr @GC_arrays, i64 166400), i64 0, i64 %5
  %7 = load ptr, ptr getelementptr inbounds nuw (i8, ptr @GC_arrays, i64 232), align 8
  br label %8

8:                                                ; preds = %8, %2
  %.0.in.i = phi ptr [ %6, %2 ], [ %14, %8 ]
  %.0.i = load ptr, ptr %.0.in.i, align 8
  %9 = getelementptr inbounds nuw i8, ptr %.0.i, i64 8208
  %10 = load i64, ptr %9, align 8
  %11 = icmp ne i64 %10, %4
  %12 = icmp ne ptr %.0.i, %7
  %13 = select i1 %11, i1 %12, i1 false
  %14 = getelementptr inbounds nuw i8, ptr %.0.i, i64 8216
  br i1 %13, label %8, label %GC_find_header.exit, !llvm.loop !15

GC_find_header.exit:                              ; preds = %8
  %15 = lshr i64 %3, 12
  %16 = and i64 %15, 1023
  %17 = getelementptr inbounds nuw [1024 x ptr], ptr %.0.i, i64 0, i64 %16
  %18 = load ptr, ptr %17, align 8
  %.not = icmp eq ptr %1, null
  br i1 %.not, label %22, label %19

19:                                               ; preds = %GC_find_header.exit
  %20 = getelementptr inbounds nuw i8, ptr %18, i64 32
  %21 = load i64, ptr %20, align 8
  store i64 %21, ptr %1, align 8
  br label %22

22:                                               ; preds = %19, %GC_find_header.exit
  %23 = getelementptr inbounds nuw i8, ptr %18, i64 24
  %24 = load i8, ptr %23, align 8
  %25 = zext i8 %24 to i32
  ret i32 %25
}